; Function Attrs: nounwind uwtable
define internal i32 @filter_frame(ptr noundef readonly captures(none) %0, ptr noundef %1) #0 {
  %3 = getelementptr inbounds nuw i8, ptr %1, i64 16
  %4 = load ptr, ptr %3, align 8, !tbaa !23
  %5 = getelementptr inbounds nuw i8, ptr %1, i64 8
  %6 = load ptr, ptr %5, align 8, !tbaa !23
  store ptr %6, ptr %3, align 8, !tbaa !23
  store ptr %4, ptr %5, align 8, !tbaa !23
  %7 = getelementptr inbounds nuw i8, ptr %1, i64 72
  %8 = load i32, ptr %7, align 8, !tbaa !24
  %9 = getelementptr inbounds nuw i8, ptr %1, i64 68
  %10 = load i32, ptr %9, align 4, !tbaa !24
  store i32 %10, ptr %7, align 8, !tbaa !24
  store i32 %8, ptr %9, align 4, !tbaa !24
  %11 = getelementptr inbounds nuw i8, ptr %1, i64 200
  %12 = load ptr, ptr %11, align 8, !tbaa !25
  %13 = getelementptr inbounds nuw i8, ptr %1, i64 192
  %14 = load ptr, ptr %13, align 8, !tbaa !25
  store ptr %14, ptr %11, align 8, !tbaa !25
  store ptr %12, ptr %13, align 8, !tbaa !25
  %15 = getelementptr inbounds nuw i8, ptr %0, i64 16
  %16 = load ptr, ptr %15, align 8, !tbaa !27
  %17 = getelementptr inbounds nuw i8, ptr %16, i64 56
  %18 = load ptr, ptr %17, align 8, !tbaa !37
  %19 = load ptr, ptr %18, align 8, !tbaa !45
  %20 = tail call i32 @ff_filter_frame(ptr noundef %19, ptr noundef %1) #3
  ret i32 %20
}